(dp0
S'rList'
p1
(lp2
cnumpy.core.multiarray
scalar
p3
(cnumpy
dtype
p4
(S'f8'
p5
I0
I1
tp6
Rp7
(I3
S'<'
p8
NNNI-1
I-1
I0
tp9
bS'\x00\x00\x00\x00\x00\x00\x9d@'
p10
tp11
Rp12
asS'jList'
p13
(lp14
I299
asS'lList'
p15
(lp16
g3
(g7
S'\x80\x85m\xea\xd9\xac\xf0@'
p17
tp18
Rp19
as.